target datalayout = "e-m:e-p270:32:32-p271:32:32-p272:64:64-i64:64-i128:128-f80:128-n8:16:32:64-S128"
target triple = "x86_64-pc-linux-gnu"

%struct.DdManager = type { %struct.DdNode, ptr, ptr, ptr, ptr, ptr, ptr, ptr, i32, i32, double, double, double, i32, i32, i32, i32, i32, i32, ptr, ptr, %struct.DdSubtable, i32, i32, i32, i32, i32, i32, i32, double, i32, i32, i32, ptr, i64, double, i32, ptr, ptr, ptr, ptr, ptr, ptr, ptr, i32, ptr, ptr, ptr, ptr, ptr, ptr, i32, i32, i32, double, i32, i32, i32, i32, double, double, i32, i32, i32, i32, i32, i32, i32, i32, i32, ptr, ptr, i32, i32, i32, i32, i32, i32, ptr, ptr, ptr, ptr, ptr, ptr, ptr, ptr, i32, i64, i64, i64, i32, i64, i64, double, double, double, double, double, double, i32, ptr, ptr, i64 }
%struct.DdNode = type { i32, i32, ptr, %union.anon, i64 }
%union.anon = type { %struct.DdChildren }
%struct.DdChildren = type { ptr, ptr }
%struct.DdSubtable = type { ptr, i32, i32, i32, i32, i32, i32, i32, i32, i32, i32, i32 }

@.str.7 = private unnamed_addr constant [5 x i8] c"NULL\00", align 1
@.str.8 = private unnamed_addr constant [11 x i8] c"Constant 0\00", align 1
@.str.9 = private unnamed_addr constant [11 x i8] c"Constant 1\00", align 1
@.str.10 = private unnamed_addr constant [4 x i8] c" + \00", align 1
@.str.11 = private unnamed_addr constant [6 x i8] c"[%d]'\00", align 1
@.str.12 = private unnamed_addr constant [5 x i8] c"[%d]\00", align 1

; Function Attrs: nounwind uwtable
define internal void @Bbr_bddPrint(ptr noundef %0, ptr noundef %1) #0 {
  %3 = alloca ptr, align 8
  %4 = alloca ptr, align 8
  %5 = alloca ptr, align 8
  %6 = alloca ptr, align 8
  %7 = alloca double, align 8
  %8 = alloca i32, align 4
  %9 = alloca i32, align 4
  %10 = alloca i32, align 4
  %11 = alloca i32, align 4
  store ptr %0, ptr %3, align 8, !tbaa !3
  store ptr %1, ptr %4, align 8, !tbaa !8
  call void @llvm.lifetime.start.p0(i64 8, ptr %5) #6
  call void @llvm.lifetime.start.p0(i64 8, ptr %6) #6
  call void @llvm.lifetime.start.p0(i64 8, ptr %7) #6
  call void @llvm.lifetime.start.p0(i64 4, ptr %8) #6
  %12 = load ptr, ptr %3, align 8, !tbaa !3
  %13 = getelementptr inbounds nuw %struct.DdManager, ptr %12, i32 0, i32 15
  %14 = load i32, ptr %13, align 8, !tbaa !14
  store i32 %14, ptr %8, align 4, !tbaa !10
  call void @llvm.lifetime.start.p0(i64 4, ptr %9) #6
  store i32 1, ptr %9, align 4, !tbaa !10
  call void @llvm.lifetime.start.p0(i64 4, ptr %10) #6
  %15 = load ptr, ptr %4, align 8, !tbaa !8
  %16 = icmp eq ptr %15, null
  br i1 %16, label %17, label %19

17:                                               ; preds = %2
  %18 = call i32 (ptr, ...) @printf(ptr noundef @.str.7)
  store i32 1, ptr %11, align 4
  br label %94

19:                                               ; preds = %2
  %20 = load ptr, ptr %4, align 8, !tbaa !8
  %21 = load ptr, ptr %3, align 8, !tbaa !3
  %22 = getelementptr inbounds nuw %struct.DdManager, ptr %21, i32 0, i32 1
  %23 = load ptr, ptr %22, align 8, !tbaa !67
  %24 = ptrtoint ptr %23 to i64
  %25 = xor i64 %24, 1
  %26 = inttoptr i64 %25 to ptr
  %27 = icmp eq ptr %20, %26
  br i1 %27, label %28, label %30

28:                                               ; preds = %19
  %29 = call i32 (ptr, ...) @printf(ptr noundef @.str.8)
  store i32 1, ptr %11, align 4
  br label %94

30:                                               ; preds = %19
  %31 = load ptr, ptr %4, align 8, !tbaa !8
  %32 = load ptr, ptr %3, align 8, !tbaa !3
  %33 = getelementptr inbounds nuw %struct.DdManager, ptr %32, i32 0, i32 1
  %34 = load ptr, ptr %33, align 8, !tbaa !67
  %35 = icmp eq ptr %31, %34
  br i1 %35, label %36, label %38

36:                                               ; preds = %30
  %37 = call i32 (ptr, ...) @printf(ptr noundef @.str.9)
  store i32 1, ptr %11, align 4
  br label %94

38:                                               ; preds = %30
  %39 = load ptr, ptr %3, align 8, !tbaa !3
  %40 = load ptr, ptr %4, align 8, !tbaa !8
  %41 = call ptr @Cudd_FirstCube(ptr noundef %39, ptr noundef %40, ptr noundef %6, ptr noundef %7)
  store ptr %41, ptr %5, align 8, !tbaa !96
  br label %42

42:                                               ; preds = %90, %38
  %43 = load ptr, ptr %5, align 8, !tbaa !96
  %44 = call i32 @Cudd_IsGenEmpty(ptr noundef %43)
  %45 = icmp ne i32 %44, 0
  br i1 %45, label %46, label %49

46:                                               ; preds = %42
  %47 = load ptr, ptr %5, align 8, !tbaa !96
  %48 = call i32 @Cudd_GenFree(ptr noundef %47)
  br label %50

49:                                               ; preds = %42
  br label %50

50:                                               ; preds = %49, %46
  %51 = phi i32 [ %48, %46 ], [ 1, %49 ]
  %52 = icmp ne i32 %51, 0
  br i1 %52, label %53, label %93

53:                                               ; preds = %50
  %54 = load i32, ptr %9, align 4, !tbaa !10
  %55 = icmp ne i32 %54, 0
  br i1 %55, label %56, label %57

56:                                               ; preds = %53
  store i32 0, ptr %9, align 4, !tbaa !10
  br label %59

57:                                               ; preds = %53
  %58 = call i32 (ptr, ...) @printf(ptr noundef @.str.10)
  br label %59

59:                                               ; preds = %57, %56
  store i32 0, ptr %10, align 4, !tbaa !10
  br label %60

60:                                               ; preds = %86, %59
  %61 = load i32, ptr %10, align 4, !tbaa !10
  %62 = load i32, ptr %8, align 4, !tbaa !10
  %63 = icmp slt i32 %61, %62
  br i1 %63, label %64, label %89

64:                                               ; preds = %60
  %65 = load ptr, ptr %6, align 8, !tbaa !85
  %66 = load i32, ptr %10, align 4, !tbaa !10
  %67 = sext i32 %66 to i64
  %68 = getelementptr inbounds i32, ptr %65, i64 %67
  %69 = load i32, ptr %68, align 4, !tbaa !10
  %70 = icmp eq i32 %69, 0
  br i1 %70, label %71, label %74

71:                                               ; preds = %64
  %72 = load i32, ptr %10, align 4, !tbaa !10
  %73 = call i32 (ptr, ...) @printf(ptr noundef @.str.11, i32 noundef %72)
  br label %85

74:                                               ; preds = %64
  %75 = load ptr, ptr %6, align 8, !tbaa !85
  %76 = load i32, ptr %10, align 4, !tbaa !10
  %77 = sext i32 %76 to i64
  %78 = getelementptr inbounds i32, ptr %75, i64 %77
  %79 = load i32, ptr %78, align 4, !tbaa !10
  %80 = icmp eq i32 %79, 1
  br i1 %80, label %81, label %84

81:                                               ; preds = %74
  %82 = load i32, ptr %10, align 4, !tbaa !10
  %83 = call i32 (ptr, ...) @printf(ptr noundef @.str.12, i32 noundef %82)
  br label %84

84:                                               ; preds = %81, %74
  br label %85

85:                                               ; preds = %84, %71
  br label %86

86:                                               ; preds = %85
  %87 = load i32, ptr %10, align 4, !tbaa !10
  %88 = add nsw i32 %87, 1
  store i32 %88, ptr %10, align 4, !tbaa !10
  br label %60, !llvm.loop !98

89:                                               ; preds = %60
  br label %90

90:                                               ; preds = %89
  %91 = load ptr, ptr %5, align 8, !tbaa !96
  %92 = call i32 @Cudd_NextCube(ptr noundef %91, ptr noundef %6, ptr noundef %7)
  br label %42, !llvm.loop !99

93:                                               ; preds = %50
  store i32 0, ptr %11, align 4
  br label %94

94:                                               ; preds = %93, %36, %28, %17
  call void @llvm.lifetime.end.p0(i64 4, ptr %10) #6
  call void @llvm.lifetime.end.p0(i64 4, ptr %9) #6
  call void @llvm.lifetime.end.p0(i64 4, ptr %8) #6
  call void @llvm.lifetime.end.p0(i64 8, ptr %7) #6
  call void @llvm.lifetime.end.p0(i64 8, ptr %6) #6
  call void @llvm.lifetime.end.p0(i64 8, ptr %5) #6
  %95 = load i32, ptr %11, align 4
  switch i32 %95, label %97 [
    i32 0, label %96
    i32 1, label %96
  ]

96:                                               ; preds = %94, %94
  ret void

97:                                               ; preds = %94
  unreachable
}