; Function Attrs: nounwind uwtable
define internal fastcc void @Bbr_bddPrint(ptr noundef %0, ptr noundef %1) unnamed_addr #0 {
  %3 = alloca ptr, align 8
  %4 = alloca double, align 8
  call void @llvm.lifetime.start.p0(i64 8, ptr nonnull %3) #11
  call void @llvm.lifetime.start.p0(i64 8, ptr nonnull %4) #11
  %5 = getelementptr inbounds nuw i8, ptr %0, i64 136
  %6 = load i32, ptr %5, align 8, !tbaa !3
  %.fr24 = freeze i32 %6
  %7 = icmp eq ptr %1, null
  br i1 %7, label %.loopexit.sink.split, label %8

8:                                                ; preds = %2
  %9 = getelementptr inbounds nuw i8, ptr %0, i64 40
  %10 = load ptr, ptr %9, align 8, !tbaa !39
  %11 = ptrtoint ptr %10 to i64
  %12 = xor i64 %11, 1
  %13 = inttoptr i64 %12 to ptr
  %14 = icmp eq ptr %1, %13
  br i1 %14, label %.loopexit.sink.split, label %15

15:                                               ; preds = %8
  %16 = icmp eq ptr %1, %10
  br i1 %16, label %.loopexit.sink.split, label %17

17:                                               ; preds = %15
  %18 = call ptr @Cudd_FirstCube(ptr noundef nonnull %0, ptr noundef nonnull %1, ptr noundef nonnull %3, ptr noundef nonnull %4) #11
  %19 = icmp sgt i32 %.fr24, 0
  br i1 %19, label %.split.us.preheader, label %.split

.split.us.preheader:                              ; preds = %17
  %wide.trip.count = zext nneg i32 %.fr24 to i64
  br label %.split.us

.split.us:                                        ; preds = %.split.us.preheader, %._crit_edge.us
  %.not22.us = phi i1 [ true, %._crit_edge.us ], [ false, %.split.us.preheader ]
  %20 = call i32 @Cudd_IsGenEmpty(ptr noundef %18) #11
  %.not.us = icmp eq i32 %20, 0
  br i1 %.not.us, label %.critedge.us, label %21

21:                                               ; preds = %.split.us
  %22 = call i32 @Cudd_GenFree(ptr noundef %18) #11
  %23 = icmp eq i32 %22, 0
  br i1 %23, label %.loopexit, label %.critedge.us

.critedge.us:                                     ; preds = %21, %.split.us
  br i1 %.not22.us, label %24, label %.lr.ph.us.preheader

24:                                               ; preds = %.critedge.us
  %25 = call i32 (ptr, ...) @printf(ptr noundef nonnull dereferenceable(1) @.str.10)
  br label %.lr.ph.us.preheader

.lr.ph.us.preheader:                              ; preds = %24, %.critedge.us
  br label %.lr.ph.us

.lr.ph.us:                                        ; preds = %.lr.ph.us.preheader, %32
  %indvars.iv = phi i64 [ %indvars.iv.next, %32 ], [ 0, %.lr.ph.us.preheader ]
  %26 = load ptr, ptr %3, align 8, !tbaa !87
  %27 = getelementptr inbounds nuw i32, ptr %26, i64 %indvars.iv
  %28 = load i32, ptr %27, align 4, !tbaa !88
  switch i32 %28, label %32 [
    i32 0, label %29
    i32 1, label %.sink.split
  ]

29:                                               ; preds = %.lr.ph.us
  br label %.sink.split

.sink.split:                                      ; preds = %.lr.ph.us, %29
  %.str.11.sink = phi ptr [ @.str.11, %29 ], [ @.str.12, %.lr.ph.us ]
  %30 = trunc nuw nsw i64 %indvars.iv to i32
  %31 = call i32 (ptr, ...) @printf(ptr noundef nonnull dereferenceable(1) %.str.11.sink, i32 noundef %30)
  br label %32

32:                                               ; preds = %.sink.split, %.lr.ph.us
  %indvars.iv.next = add nuw nsw i64 %indvars.iv, 1
  %exitcond.not = icmp eq i64 %indvars.iv.next, %wide.trip.count
  br i1 %exitcond.not, label %._crit_edge.us, label %.lr.ph.us, !llvm.loop !89

._crit_edge.us:                                   ; preds = %32
  %33 = call i32 @Cudd_NextCube(ptr noundef %18, ptr noundef nonnull %3, ptr noundef nonnull %4) #11
  br label %.split.us, !llvm.loop !90

.split:                                           ; preds = %17, %40
  %.not22 = phi i1 [ true, %40 ], [ false, %17 ]
  %34 = call i32 @Cudd_IsGenEmpty(ptr noundef %18) #11
  %.not = icmp eq i32 %34, 0
  br i1 %.not, label %.critedge, label %35

35:                                               ; preds = %.split
  %36 = call i32 @Cudd_GenFree(ptr noundef %18) #11
  %37 = icmp eq i32 %36, 0
  br i1 %37, label %.loopexit, label %.critedge

.critedge:                                        ; preds = %.split, %35
  br i1 %.not22, label %38, label %40

38:                                               ; preds = %.critedge
  %39 = call i32 (ptr, ...) @printf(ptr noundef nonnull dereferenceable(1) @.str.10)
  br label %40

40:                                               ; preds = %.critedge, %38
  %41 = call i32 @Cudd_NextCube(ptr noundef %18, ptr noundef nonnull %3, ptr noundef nonnull %4) #11
  br label %.split, !llvm.loop !90

.loopexit.sink.split:                             ; preds = %15, %8, %2
  %.str.9.sink = phi ptr [ @.str.7, %2 ], [ @.str.8, %8 ], [ @.str.9, %15 ]
  %42 = tail call i32 (ptr, ...) @printf(ptr noundef nonnull dereferenceable(1) %.str.9.sink)
  br label %.loopexit

.loopexit:                                        ; preds = %35, %21, %.loopexit.sink.split
  call void @llvm.lifetime.end.p0(i64 8, ptr nonnull %4) #11
  call void @llvm.lifetime.end.p0(i64 8, ptr nonnull %3) #11
  ret void
}